
paper_test.elf:     file format elf64-littleriscv
paper_test.elf
architecture: riscv:rv64, flags 0x00000112:
EXEC_P, HAS_SYMS, D_PAGED
start address 0x000000008000025c

Program Header:
    LOAD off    0x0000000000001000 vaddr 0x0000000080000000 paddr 0x0000000080000000 align 2**12
         filesz 0x0000000000000422 memsz 0x0000000000000422 flags rwx

Sections:
Idx Name          Size      VMA               LMA               File off  Algn
  0 .text.init    00000088  0000000080000000  0000000080000000  00001000  2**0
                  CONTENTS, ALLOC, LOAD, READONLY, CODE
  1 .text         0000015c  0000000080000100  0000000080000100  00001100  2**8
                  CONTENTS, ALLOC, LOAD, READONLY, CODE
  2 .text.startup 0000005c  000000008000025c  000000008000025c  0000125c  2**1
                  CONTENTS, ALLOC, LOAD, READONLY, CODE
  3 .data         00000010  0000000080000300  0000000080000300  00001300  2**8
                  CONTENTS, ALLOC, LOAD, DATA
  4 .rodata       00000022  0000000080000400  0000000080000400  00001400  2**8
                  CONTENTS, ALLOC, LOAD, READONLY, DATA
  5 .riscv.attributes 0000002f  0000000000000000  0000000000000000  00001422  2**0
                  CONTENTS, READONLY
  6 .comment      00000012  0000000000000000  0000000000000000  00001451  2**0
                  CONTENTS, READONLY
  7 .debug_line   00000797  0000000000000000  0000000000000000  00001463  2**0
                  CONTENTS, READONLY, DEBUGGING, OCTETS
  8 .debug_info   00000876  0000000000000000  0000000000000000  00001bfa  2**0
                  CONTENTS, READONLY, DEBUGGING, OCTETS
  9 .debug_abbrev 000002ef  0000000000000000  0000000000000000  00002470  2**0
                  CONTENTS, READONLY, DEBUGGING, OCTETS
 10 .debug_aranges 000000a0  0000000000000000  0000000000000000  00002760  2**4
                  CONTENTS, READONLY, DEBUGGING, OCTETS
 11 .debug_str    0000023b  0000000000000000  0000000000000000  00002800  2**0
                  CONTENTS, READONLY, DEBUGGING, OCTETS
 12 .debug_ranges 000000f0  0000000000000000  0000000000000000  00002a3b  2**0
                  CONTENTS, READONLY, DEBUGGING, OCTETS
 13 .debug_frame  000001a0  0000000000000000  0000000000000000  00002b30  2**3
                  CONTENTS, READONLY, DEBUGGING, OCTETS
 14 .debug_loc    0000054d  0000000000000000  0000000000000000  00002cd0  2**0
                  CONTENTS, READONLY, DEBUGGING, OCTETS
SYMBOL TABLE:
0000000080000000 l    d  .text.init	0000000000000000 .text.init
0000000080000100 l    d  .text	0000000000000000 .text
000000008000025c l    d  .text.startup	0000000000000000 .text.startup
0000000080000300 l    d  .data	0000000000000000 .data
0000000080000400 l    d  .rodata	0000000000000000 .rodata
0000000000000000 l    d  .riscv.attributes	0000000000000000 .riscv.attributes
0000000000000000 l    d  .comment	0000000000000000 .comment
0000000000000000 l    d  .debug_line	0000000000000000 .debug_line
0000000000000000 l    d  .debug_info	0000000000000000 .debug_info
0000000000000000 l    d  .debug_abbrev	0000000000000000 .debug_abbrev
0000000000000000 l    d  .debug_aranges	0000000000000000 .debug_aranges
0000000000000000 l    d  .debug_str	0000000000000000 .debug_str
0000000000000000 l    d  .debug_ranges	0000000000000000 .debug_ranges
0000000000000000 l    d  .debug_frame	0000000000000000 .debug_frame
0000000000000000 l    d  .debug_loc	0000000000000000 .debug_loc
0000000000000000 l    df *ABS*	0000000000000000 main.c
0000000000000000 l    df *ABS*	0000000000000000 uart.c
0000000080000120 g     F .text	0000000000000014 write_serial
0000000080000310 g       .data	0000000000000000 _DATA_END_
00000000800001fa g     F .text	0000000000000042 print_uart_addr
000000008000025c g       .text	0000000000000000 _TEXT_END_
0000000080000100 g     F .text	0000000000000002 handle_trap
0000000080000000 g       *ABS*	0000000000000000 RAM_BASE
0000000080000134 g     F .text	0000000000000044 init_uart
00000000800001ba g     F .text	0000000000000040 print_uart_int
000000008000023c g     F .text	0000000000000020 print_uart_byte
0000000080000102 g     F .text	0000000000000006 write_reg_u8
0000000080000196 g     F .text	0000000000000024 bin_to_hex
0000000080000000 g       .text.init	0000000000000000 _prog_start
0000000080000112 g     F .text	000000000000000e is_transmit_empty
000000008000025c g     F .text.startup	000000000000005c main
0000000080000400 g       .data	0000000000000000 _BSS_START_
0000000080000400 g       .data	0000000000000000 _BSS_END_
0000000080000300 g       .data	0000000000000000 _DATA_START_
0000000080000178 g     F .text	000000000000001e print_uart
0000000080000422 g       .rodata	0000000000000000 _RODATA_END_
0000000080000400 g       .rodata	0000000000000000 _RODATA_START_
0000000080000300 g     O .data	0000000000000010 bin_to_hex_table
0000000080000108 g     F .text	000000000000000a read_reg_u8
0000000080000100 g       .text	0000000000000000 _TEXT_START_



Disassembly of section .text.init:

0000000080000000 <_prog_start>:

  .section .text.init
  .option norvc
  .globl _prog_start
_prog_start:
  smp_pause(s1, s2)
    80000000:	00800913          	li	s2,8
    80000004:	30491073          	csrw	mie,s2
    80000008:	00000493          	li	s1,0
    8000000c:	f1402973          	csrr	s2,mhartid
    80000010:	03249663          	bne	s1,s2,8000003c <_prog_start+0x3c>
  li sp, 0x84000000
    80000014:	0210011b          	addiw	sp,zero,33
    80000018:	01a11113          	slli	sp,sp,0x1a
  call main
    8000001c:	240000ef          	jal	ra,8000025c <main>
  smp_resume(s1, s2)
    80000020:	020004b7          	lui	s1,0x2000
    80000024:	00100913          	li	s2,1
    80000028:	0124a023          	sw	s2,0(s1) # 2000000 <_prog_start-0x7e000000>
    8000002c:	00448493          	addi	s1,s1,4
    80000030:	02000937          	lui	s2,0x2000
    80000034:	4009091b          	addiw	s2,s2,1024
    80000038:	ff24c6e3          	blt	s1,s2,80000024 <_prog_start+0x24>
    8000003c:	10500073          	wfi
    80000040:	34402973          	csrr	s2,mip
    80000044:	00897913          	andi	s2,s2,8
    80000048:	fe090ae3          	beqz	s2,8000003c <_prog_start+0x3c>
    8000004c:	020004b7          	lui	s1,0x2000
    80000050:	f1402973          	csrr	s2,mhartid
    80000054:	00291913          	slli	s2,s2,0x2
    80000058:	00990933          	add	s2,s2,s1
    8000005c:	00092023          	sw	zero,0(s2) # 2000000 <_prog_start-0x7e000000>
    80000060:	0004a903          	lw	s2,0(s1) # 2000000 <_prog_start-0x7e000000>
    80000064:	fe091ee3          	bnez	s2,80000060 <_prog_start+0x60>
    80000068:	00448493          	addi	s1,s1,4
    8000006c:	02000937          	lui	s2,0x2000
    80000070:	4009091b          	addiw	s2,s2,1024
    80000074:	ff24c6e3          	blt	s1,s2,80000060 <_prog_start+0x60>
  csrr a0, mhartid
    80000078:	f1402573          	csrr	a0,mhartid
  li s1, DRAM_BASE
    8000007c:	0010049b          	addiw	s1,zero,1
    80000080:	01f49493          	slli	s1,s1,0x1f
  jr s1
    80000084:	00048067          	jr	s1

Disassembly of section .text:

0000000080000100 <handle_trap>:
}

void handle_trap(void)
{
    // print_uart("trap\r\n");
    80000100:	8082                	ret

0000000080000102 <write_reg_u8>:
#include "uart.h"

void write_reg_u8(uintptr_t addr, uint8_t value)
{
    volatile uint8_t *loc_addr = (volatile uint8_t *)addr;
    *loc_addr = value;
    80000102:	00b50023          	sb	a1,0(a0)
}
    80000106:	8082                	ret

0000000080000108 <read_reg_u8>:

uint8_t read_reg_u8(uintptr_t addr)
{
    return *(volatile uint8_t *)addr;
    80000108:	00054503          	lbu	a0,0(a0)
}
    8000010c:	0ff57513          	andi	a0,a0,255
    80000110:	8082                	ret

0000000080000112 <is_transmit_empty>:
    return *(volatile uint8_t *)addr;
    80000112:	100007b7          	lui	a5,0x10000
    80000116:	0147c503          	lbu	a0,20(a5) # 10000014 <RAM_BASE-0x6fffffec>

int is_transmit_empty()
{
    return read_reg_u8(UART_LINE_STATUS) & 0x20;
}
    8000011a:	02057513          	andi	a0,a0,32
    8000011e:	8082                	ret

0000000080000120 <write_serial>:
    return *(volatile uint8_t *)addr;
    80000120:	10000737          	lui	a4,0x10000
    80000124:	01474783          	lbu	a5,20(a4) # 10000014 <RAM_BASE-0x6fffffec>

void write_serial(char a)
{
    while (is_transmit_empty() == 0) {};
    80000128:	0207f793          	andi	a5,a5,32
    8000012c:	dfe5                	beqz	a5,80000124 <write_serial+0x4>
    *loc_addr = value;
    8000012e:	00a70023          	sb	a0,0(a4)

    write_reg_u8(UART_THR, a);
}
    80000132:	8082                	ret

0000000080000134 <init_uart>:

void init_uart(uint32_t freq, uint32_t baud)
{
    uint32_t divisor = freq / (baud << 4);
    80000134:	0045959b          	slliw	a1,a1,0x4
    80000138:	02b5553b          	divuw	a0,a0,a1
    *loc_addr = value;
    8000013c:	100007b7          	lui	a5,0x10000
    80000140:	00078223          	sb	zero,4(a5) # 10000004 <RAM_BASE-0x6ffffffc>
    80000144:	f8000713          	li	a4,-128
    80000148:	00e78623          	sb	a4,12(a5)

    write_reg_u8(UART_INTERRUPT_ENABLE, 0x00); // Disable all interrupts
    write_reg_u8(UART_LINE_CONTROL, 0x80);     // Enable DLAB (set baud rate divisor)
    write_reg_u8(UART_DLAB_LSB, divisor);         // divisor (lo byte)
    8000014c:	0ff57713          	andi	a4,a0,255
    write_reg_u8(UART_DLAB_MSB, (divisor >> 8) & 0xFF);  // divisor (hi byte)
    80000150:	0085551b          	srliw	a0,a0,0x8
    *loc_addr = value;
    80000154:	00e78023          	sb	a4,0(a5)
    write_reg_u8(UART_DLAB_MSB, (divisor >> 8) & 0xFF);  // divisor (hi byte)
    80000158:	0ff57513          	andi	a0,a0,255
    *loc_addr = value;
    8000015c:	00a78223          	sb	a0,4(a5)
    80000160:	470d                	li	a4,3
    80000162:	00e78623          	sb	a4,12(a5)
    80000166:	fc700713          	li	a4,-57
    8000016a:	00e78423          	sb	a4,8(a5)
    8000016e:	02000713          	li	a4,32
    80000172:	00e78823          	sb	a4,16(a5)
    write_reg_u8(UART_LINE_CONTROL, 0x03);     // 8 bits, no parity, one stop bit
    write_reg_u8(UART_FIFO_CONTROL, 0xC7);     // Enable FIFO, clear them, with 14-byte threshold
    write_reg_u8(UART_MODEM_CONTROL, 0x20);    // Autoflow mode
}
    80000176:	8082                	ret

0000000080000178 <print_uart>:

void print_uart(const char *str)
{
    80000178:	1141                	addi	sp,sp,-16
    8000017a:	e022                	sd	s0,0(sp)
    8000017c:	e406                	sd	ra,8(sp)
    8000017e:	842a                	mv	s0,a0
    const char *cur = &str[0];
    while (*cur != '\0')
    80000180:	00044503          	lbu	a0,0(s0)
    80000184:	e509                	bnez	a0,8000018e <print_uart+0x16>
    {
        write_serial((uint8_t)*cur);
        ++cur;
    }
}
    80000186:	60a2                	ld	ra,8(sp)
    80000188:	6402                	ld	s0,0(sp)
    8000018a:	0141                	addi	sp,sp,16
    8000018c:	8082                	ret
        write_serial((uint8_t)*cur);
    8000018e:	f93ff0ef          	jal	ra,80000120 <write_serial>
        ++cur;
    80000192:	0405                	addi	s0,s0,1
    80000194:	b7f5                	j	80000180 <print_uart+0x8>

0000000080000196 <bin_to_hex>:
uint8_t bin_to_hex_table[16] = {
    '0', '1', '2', '3', '4', '5', '6', '7', '8', '9', 'A', 'B', 'C', 'D', 'E', 'F'};

void bin_to_hex(uint8_t inp, uint8_t res[2])
{
    res[1] = bin_to_hex_table[inp & 0xf];
    80000196:	00000797          	auipc	a5,0x0
    8000019a:	16a78793          	addi	a5,a5,362 # 80000300 <bin_to_hex_table>
    8000019e:	00f57713          	andi	a4,a0,15
    800001a2:	973e                	add	a4,a4,a5
    800001a4:	00074703          	lbu	a4,0(a4)
    res[0] = bin_to_hex_table[(inp >> 4) & 0xf];
    800001a8:	8111                	srli	a0,a0,0x4
    800001aa:	97aa                	add	a5,a5,a0
    res[1] = bin_to_hex_table[inp & 0xf];
    800001ac:	00e580a3          	sb	a4,1(a1)
    res[0] = bin_to_hex_table[(inp >> 4) & 0xf];
    800001b0:	0007c783          	lbu	a5,0(a5)
    800001b4:	00f58023          	sb	a5,0(a1)
    return;
}
    800001b8:	8082                	ret

00000000800001ba <print_uart_int>:

void print_uart_int(uint32_t addr)
{
    800001ba:	7179                	addi	sp,sp,-48
    800001bc:	f022                	sd	s0,32(sp)
    800001be:	ec26                	sd	s1,24(sp)
    800001c0:	e84a                	sd	s2,16(sp)
    800001c2:	f406                	sd	ra,40(sp)
    800001c4:	84aa                	mv	s1,a0
    800001c6:	4461                	li	s0,24
    int i;
    for (i = 3; i > -1; i--)
    800001c8:	5961                	li	s2,-8
    {
        uint8_t cur = (addr >> (i * 8)) & 0xff;
    800001ca:	0084d53b          	srlw	a0,s1,s0
        uint8_t hex[2];
        bin_to_hex(cur, hex);
    800001ce:	002c                	addi	a1,sp,8
    800001d0:	0ff57513          	andi	a0,a0,255
    800001d4:	fc3ff0ef          	jal	ra,80000196 <bin_to_hex>
        write_serial(hex[0]);
    800001d8:	00814503          	lbu	a0,8(sp)
    for (i = 3; i > -1; i--)
    800001dc:	3461                	addiw	s0,s0,-8
        write_serial(hex[0]);
    800001de:	f43ff0ef          	jal	ra,80000120 <write_serial>
        write_serial(hex[1]);
    800001e2:	00914503          	lbu	a0,9(sp)
    800001e6:	f3bff0ef          	jal	ra,80000120 <write_serial>
    for (i = 3; i > -1; i--)
    800001ea:	ff2410e3          	bne	s0,s2,800001ca <print_uart_int+0x10>
    }
}
    800001ee:	70a2                	ld	ra,40(sp)
    800001f0:	7402                	ld	s0,32(sp)
    800001f2:	64e2                	ld	s1,24(sp)
    800001f4:	6942                	ld	s2,16(sp)
    800001f6:	6145                	addi	sp,sp,48
    800001f8:	8082                	ret

00000000800001fa <print_uart_addr>:

void print_uart_addr(uint64_t addr)
{
    800001fa:	7179                	addi	sp,sp,-48
    800001fc:	f022                	sd	s0,32(sp)
    800001fe:	ec26                	sd	s1,24(sp)
    80000200:	e84a                	sd	s2,16(sp)
    80000202:	f406                	sd	ra,40(sp)
    80000204:	84aa                	mv	s1,a0
    80000206:	03800413          	li	s0,56
    int i;
    for (i = 7; i > -1; i--)
    8000020a:	5961                	li	s2,-8
    {
        uint8_t cur = (addr >> (i * 8)) & 0xff;
    8000020c:	0084d533          	srl	a0,s1,s0
        uint8_t hex[2];
        bin_to_hex(cur, hex);
    80000210:	002c                	addi	a1,sp,8
    80000212:	0ff57513          	andi	a0,a0,255
    80000216:	f81ff0ef          	jal	ra,80000196 <bin_to_hex>
        write_serial(hex[0]);
    8000021a:	00814503          	lbu	a0,8(sp)
    for (i = 7; i > -1; i--)
    8000021e:	3461                	addiw	s0,s0,-8
        write_serial(hex[0]);
    80000220:	f01ff0ef          	jal	ra,80000120 <write_serial>
        write_serial(hex[1]);
    80000224:	00914503          	lbu	a0,9(sp)
    80000228:	ef9ff0ef          	jal	ra,80000120 <write_serial>
    for (i = 7; i > -1; i--)
    8000022c:	ff2410e3          	bne	s0,s2,8000020c <print_uart_addr+0x12>
    }
}
    80000230:	70a2                	ld	ra,40(sp)
    80000232:	7402                	ld	s0,32(sp)
    80000234:	64e2                	ld	s1,24(sp)
    80000236:	6942                	ld	s2,16(sp)
    80000238:	6145                	addi	sp,sp,48
    8000023a:	8082                	ret

000000008000023c <print_uart_byte>:

void print_uart_byte(uint8_t byte)
{
    8000023c:	1101                	addi	sp,sp,-32
    uint8_t hex[2];
    bin_to_hex(byte, hex);
    8000023e:	002c                	addi	a1,sp,8
{
    80000240:	ec06                	sd	ra,24(sp)
    bin_to_hex(byte, hex);
    80000242:	f55ff0ef          	jal	ra,80000196 <bin_to_hex>
    write_serial(hex[0]);
    80000246:	00814503          	lbu	a0,8(sp)
    8000024a:	ed7ff0ef          	jal	ra,80000120 <write_serial>
    write_serial(hex[1]);
    8000024e:	00914503          	lbu	a0,9(sp)
    80000252:	ecfff0ef          	jal	ra,80000120 <write_serial>
    80000256:	60e2                	ld	ra,24(sp)
    80000258:	6105                	addi	sp,sp,32
    8000025a:	8082                	ret

Disassembly of section .text.startup:

000000008000025c <main>:
    init_uart(50000000, 115200);
    8000025c:	65f1                	lui	a1,0x1c
    8000025e:	02faf537          	lui	a0,0x2faf
{
    80000262:	1141                	addi	sp,sp,-16
    init_uart(50000000, 115200);
    80000264:	20058593          	addi	a1,a1,512 # 1c200 <RAM_BASE-0x7ffe3e00>
    80000268:	08050513          	addi	a0,a0,128 # 2faf080 <RAM_BASE-0x7d050f80>
{
    8000026c:	e406                	sd	ra,8(sp)
    init_uart(50000000, 115200);
    8000026e:	ec7ff0ef          	jal	ra,80000134 <init_uart>
    print_uart("Hello Georg!\r\n");
    80000272:	00000517          	auipc	a0,0x0
    80000276:	18e50513          	addi	a0,a0,398 # 80000400 <_BSS_END_>
    8000027a:	effff0ef          	jal	ra,80000178 <print_uart>
    *hv_tot = (1056<<16) + 628;
    8000027e:	04200737          	lui	a4,0x4200
    80000282:	190007b7          	lui	a5,0x19000
    80000286:	27470713          	addi	a4,a4,628 # 4200274 <RAM_BASE-0x7bdffd8c>
    8000028a:	c798                	sw	a4,8(a5)
    *hv_act = (800<<16) + 600;
    8000028c:	03200737          	lui	a4,0x3200
    80000290:	25870713          	addi	a4,a4,600 # 3200258 <RAM_BASE-0x7cdffda8>
    80000294:	cb98                	sw	a4,16(a5)
    *hv_front = (40<<16) + 1;
    80000296:	00280737          	lui	a4,0x280
    8000029a:	0705                	addi	a4,a4,1
    8000029c:	cf98                	sw	a4,24(a5)
    *hv_sync = (128<<16) + 4;
    8000029e:	00800737          	lui	a4,0x800
    800002a2:	0711                	addi	a4,a4,4
    800002a4:	d398                	sw	a4,32(a5)
    print_uart("tschuess Georg!\r\n");
    800002a6:	00000517          	auipc	a0,0x0
    *pointer_addr = 1;
    800002aa:	4705                	li	a4,1
    800002ac:	e398                	sd	a4,0(a5)
    print_uart("tschuess Georg!\r\n");
    800002ae:	16a50513          	addi	a0,a0,362 # 80000410 <_BSS_END_+0x10>
    800002b2:	ec7ff0ef          	jal	ra,80000178 <print_uart>
    while (1)
    800002b6:	a001                	j	800002b6 <main+0x5a>
